; Function Attrs: nounwind uwtable
define dso_local noundef ptr @ExecInitExtraTupleSlot(ptr noundef captures(none) %0, ptr noundef %1, ptr noundef %2) local_unnamed_addr #1 {
  %4 = load i64, ptr %2, align 8
  %.not.i.i = icmp eq ptr %1, null
  br i1 %.not.i.i, label %15, label %5

5:                                                ; preds = %3
  %6 = add i64 %4, 7
  %7 = and i64 %6, -8
  %8 = load i32, ptr %1, align 8
  %9 = sext i32 %8 to i64
  %10 = shl nsw i64 %9, 3
  %11 = add i64 %10, %7
  %12 = add nsw i64 %9, 7
  %13 = and i64 %12, -8
  %14 = add i64 %11, %13
  br label %15

15:                                               ; preds = %5, %3
  %spec.select.v.i.i = phi i16 [ 18, %5 ], [ 2, %3 ]
  %.0.i.i = phi i64 [ %14, %5 ], [ %4, %3 ]
  %16 = tail call ptr @palloc0(i64 noundef %.0.i.i) #14
  %17 = getelementptr inbounds nuw i8, ptr %16, i64 8
  store ptr %2, ptr %17, align 8
  store i32 442, ptr %16, align 8
  %18 = getelementptr inbounds nuw i8, ptr %16, i64 4
  %19 = load i16, ptr %18, align 4
  %spec.select.i.i = or i16 %19, %spec.select.v.i.i
  store i16 %spec.select.i.i, ptr %18, align 4
  %20 = getelementptr inbounds nuw i8, ptr %16, i64 16
  store ptr %1, ptr %20, align 8
  %21 = load ptr, ptr @CurrentMemoryContext, align 8
  %22 = getelementptr inbounds nuw i8, ptr %16, i64 40
  store ptr %21, ptr %22, align 8
  %23 = getelementptr inbounds nuw i8, ptr %16, i64 6
  store i16 0, ptr %23, align 2
  br i1 %.not.i.i, label %ExecAllocTableSlot.exit, label %24

24:                                               ; preds = %15
  %25 = add i64 %4, 7
  %26 = and i64 %25, -8
  %27 = getelementptr inbounds nuw i8, ptr %16, i64 %26
  %28 = getelementptr inbounds nuw i8, ptr %16, i64 24
  store ptr %27, ptr %28, align 8
  %29 = load i32, ptr %1, align 8
  %30 = sext i32 %29 to i64
  %31 = shl nsw i64 %30, 3
  %32 = getelementptr inbounds nuw i8, ptr %27, i64 %31
  %33 = getelementptr inbounds nuw i8, ptr %16, i64 32
  store ptr %32, ptr %33, align 8
  %34 = getelementptr inbounds nuw i8, ptr %1, i64 12
  %35 = load i32, ptr %34, align 4
  %36 = icmp sgt i32 %35, -1
  br i1 %36, label %37, label %ExecAllocTableSlot.exit

37:                                               ; preds = %24
  tail call void @IncrTupleDescRefCount(ptr noundef nonnull %1) #14
  %.pre.i.i = load ptr, ptr %17, align 8
  br label %ExecAllocTableSlot.exit

ExecAllocTableSlot.exit:                          ; preds = %15, %24, %37
  %38 = phi ptr [ %2, %24 ], [ %.pre.i.i, %37 ], [ %2, %15 ]
  %39 = getelementptr inbounds nuw i8, ptr %0, i64 200
  %40 = getelementptr inbounds nuw i8, ptr %38, i64 8
  %41 = load ptr, ptr %40, align 8
  tail call void %41(ptr noundef nonnull %16) #14
  %42 = load ptr, ptr %39, align 8
  %43 = tail call ptr @lappend(ptr noundef %42, ptr noundef nonnull %16) #14
  store ptr %43, ptr %39, align 8
  ret ptr %16
}